; Function Attrs: nounwind sspstrong uwtable
define internal noundef i64 @time_init_copy(i64 noundef returned %0, i64 noundef %1) #1 {
  %.not = icmp eq i64 %0, %1
  br i1 %.not, label %19, label %3

3:                                                ; preds = %2
  %4 = tail call i64 @rb_obj_init_copy(i64 noundef %0, i64 noundef %1) #21
  %5 = tail call ptr @rb_check_typeddata(i64 noundef %1, ptr noundef nonnull @time_data_type) #21
  %6 = getelementptr inbounds nuw i8, ptr %5, i64 40
  %7 = load i64, ptr %6, align 8
  %8 = and i64 %7, 61572651155456
  %.not.i = icmp eq i64 %8, 26388279066624
  br i1 %.not.i, label %9, label %get_timeval.exit

9:                                                ; preds = %3
  %10 = load i64, ptr @rb_eTypeError, align 8, !tbaa !11
  %11 = tail call i64 @rb_obj_class(i64 noundef %1) #21
  tail call void (i64, ptr, ...) @rb_raise(i64 noundef %10, ptr noundef nonnull @.str.92, i64 noundef %11) #22
  unreachable

get_timeval.exit:                                 ; preds = %3
  %12 = tail call ptr @rb_check_typeddata(i64 noundef %0, ptr noundef nonnull @time_data_type) #21
  %13 = getelementptr inbounds nuw i8, ptr %12, i64 40
  %14 = load i64, ptr %13, align 8
  %15 = and i64 %14, 61572651155456
  %.not.i11 = icmp eq i64 %15, 26388279066624
  br i1 %.not.i11, label %get_new_timeval.exit, label %16

16:                                               ; preds = %get_timeval.exit
  %17 = load i64, ptr @rb_eTypeError, align 8, !tbaa !11
  %18 = tail call i64 @rb_obj_class(i64 noundef %0) #21
  tail call void (i64, ptr, ...) @rb_raise(i64 noundef %17, ptr noundef nonnull @.str.117, i64 noundef %18) #22
  unreachable

get_new_timeval.exit:                             ; preds = %get_timeval.exit
  tail call void @llvm.memcpy.p0.p0.i64(ptr noundef nonnull align 1 dereferenceable(48) %12, ptr noundef nonnull readonly align 1 dereferenceable(48) %5, i64 noundef range(i64 1, 0) 48, i1 noundef false) #21
  br label %19

19:                                               ; preds = %2, %get_new_timeval.exit
  ret i64 %0
}